(dp0
S'rec.motorcycles'
p1
F0.05276467149765893
sS'comp.sys.mac.hardware'
p2
F0.05139862163285698
sS'talk.politics.misc'
p3
F0.041104137809106614
sS'soc.religion.christian'
p4
F0.05281670137980062
sS'comp.graphics'
p5
F0.051581257137517635
sS'talk.religion.misc'
p6
F0.032993847200978164
sS'comp.windows.x'
p7
F0.05232347933378391
sS'comp.sys.ibm.pc.hardware'
p8
F0.052146153000770364
sS'talk.politics.guns'
p9
F0.048567240393452095
sS'alt.atheism'
p10
F0.042128277019834535
sS'sci.med'
p11
F0.052752991320035275
sS'sci.crypt'
p12
F0.05277528984095314
sS'sci.space'
p13
F0.05231498465914853
sS'misc.forsale'
p14
F0.05156161320242332
sS'rec.sport.hockey'
p15
F0.052777944426776705
sS'rec.sport.baseball'
p16
F0.05273706380509394
sS'sci.electronics'
p17
F0.05217110610751179
sS'comp.os.ms-windows.misc'
p18
F0.05213712740897027
sS'rec.autos'
p19
F0.05272910004762327
sS'talk.politics.mideast'
p20
F0.05021839277570395
s.